; Function Attrs: nounwind uwtable
define i32 @WebPPictureImportBGRA(ptr noundef %0, ptr noundef %1, i32 noundef %2) local_unnamed_addr #0 {
  %4 = icmp ne ptr %0, null
  %5 = icmp ne ptr %1, null
  %or.cond = and i1 %4, %5
  br i1 %or.cond, label %6, label %Import.exit

6:                                                ; preds = %3
  %7 = getelementptr inbounds nuw i8, ptr %1, i64 2
  %8 = getelementptr inbounds nuw i8, ptr %1, i64 1
  %9 = getelementptr inbounds nuw i8, ptr %0, i64 8
  %10 = load i32, ptr %9, align 8, !tbaa !13
  %11 = getelementptr inbounds nuw i8, ptr %0, i64 12
  %12 = load i32, ptr %11, align 4, !tbaa !14
  %13 = tail call i32 @llvm.abs.i32(i32 %2, i1 true)
  %14 = shl nsw i32 %10, 2
  %15 = icmp slt i32 %13, %14
  br i1 %15, label %Import.exit, label %16

16:                                               ; preds = %6
  %17 = load i32, ptr %0, align 8, !tbaa !3
  %.not73.i = icmp eq i32 %17, 0
  br i1 %.not73.i, label %18, label %21

18:                                               ; preds = %16
  %19 = getelementptr inbounds nuw i8, ptr %1, i64 3
  %20 = tail call fastcc i32 @ImportYUVAFromRGBA(ptr noundef %7, ptr noundef %8, ptr noundef %1, ptr noundef nonnull %19, i32 noundef 4, i32 noundef %2, float noundef 0.000000e+00, i32 noundef 0, ptr noundef nonnull %0)
  br label %Import.exit

21:                                               ; preds = %16
  %22 = tail call i32 @WebPPictureAlloc(ptr noundef nonnull %0) #9
  %.not74.i = icmp eq i32 %22, 0
  br i1 %.not74.i, label %Import.exit, label %23

23:                                               ; preds = %21
  tail call void @VP8LDspInit() #9
  tail call void @WebPInitAlphaProcessing() #9
  %24 = icmp sgt i32 %12, 0
  br i1 %24, label %.lr.ph.i, label %Import.exit

.lr.ph.i:                                         ; preds = %23
  %25 = getelementptr inbounds nuw i8, ptr %0, i64 72
  %26 = load ptr, ptr %25, align 8, !tbaa !12
  %27 = sext i32 %14 to i64
  %28 = sext i32 %2 to i64
  %29 = getelementptr inbounds nuw i8, ptr %0, i64 80
  br label %30

30:                                               ; preds = %30, %.lr.ph.i
  %.06480.i = phi ptr [ %26, %.lr.ph.i ], [ %34, %30 ]
  %.06579.i = phi ptr [ %1, %.lr.ph.i ], [ %31, %30 ]
  %.06778.i = phi i32 [ 0, %.lr.ph.i ], [ %35, %30 ]
  tail call void @llvm.memcpy.p0.p0.i64(ptr align 4 %.06480.i, ptr align 1 %.06579.i, i64 %27, i1 false)
  %31 = getelementptr inbounds i8, ptr %.06579.i, i64 %28
  %32 = load i32, ptr %29, align 8, !tbaa !15
  %33 = sext i32 %32 to i64
  %34 = getelementptr inbounds i32, ptr %.06480.i, i64 %33
  %35 = add nuw nsw i32 %.06778.i, 1
  %exitcond.not.i = icmp eq i32 %35, %12
  br i1 %exitcond.not.i, label %Import.exit, label %30, !llvm.loop !34

Import.exit:                                      ; preds = %30, %23, %21, %18, %6, %3
  %36 = phi i32 [ 0, %3 ], [ %20, %18 ], [ 0, %6 ], [ 0, %21 ], [ 1, %23 ], [ 1, %30 ]
  ret i32 %36
}